target datalayout = "e-m:e-p270:32:32-p271:32:32-p272:64:64-i64:64-i128:128-f80:128-n8:16:32:64-S128"
target triple = "x86_64-pc-linux-gnu"

%"class.clang::SourceLocation" = type { i32 }
%"class.clang::QualType" = type { %"class.llvm::PointerIntPair" }
%"class.llvm::PointerIntPair" = type { %"struct.llvm::detail::PunnedPointer" }
%"struct.llvm::detail::PunnedPointer" = type { [8 x i8] }
%"class.clang::Expr" = type { %"class.clang::ValueStmt", %"class.clang::QualType" }
%"class.clang::ValueStmt" = type { %"class.clang::Stmt" }
%"class.clang::Stmt" = type { %union.anon }
%union.anon = type { %"class.clang::Stmt::PseudoObjectExprBitfields" }
%"class.clang::Stmt::PseudoObjectExprBitfields" = type { i64 }
%"class.clang::Stmt::ExprBitfields" = type <{ i8, i16, i8 }>
%"class.clang::ChooseExpr" = type <{ %"class.clang::Expr", [3 x ptr], %"class.clang::SourceLocation", %"class.clang::SourceLocation", i8, [7 x i8] }>

; Function Attrs: mustprogress nounwind uwtable
define linkonce_odr hidden noundef zeroext i8 @_ZN4llvm13to_underlyingIN5clang19ExprDependenceScope14ExprDependenceEEENSt15underlying_typeIT_E4typeES5_(i8 noundef zeroext %0) #0 comdat {
  %2 = alloca i8, align 1
  store i8 %0, ptr %2, align 1
  %3 = load i8, ptr %2, align 1
  ret i8 %3
}

; Function Attrs: mustprogress nounwind uwtable
define linkonce_odr hidden noundef ptr @_ZN4llvm16cast_convert_valIN5clang4ExprEPNS1_4StmtES4_E4doitEPKS3_(ptr noundef %0) #0 comdat align 2 {
  %2 = alloca ptr, align 8
  store ptr %0, ptr %2, align 8
  %3 = load ptr, ptr %2, align 8
  ret ptr %3
}

; Function Attrs: mustprogress nounwind uwtable
define linkonce_odr hidden noundef zeroext i8 @_ZN4llvm17BitmaskEnumDetail10UnderlyingIN5clang19ExprDependenceScope14ExprDependenceEEENSt15underlying_typeIT_E4typeES6_(i8 noundef zeroext %0) #0 comdat {
  %2 = alloca i8, align 1
  %3 = alloca i8, align 1
  store i8 %0, ptr %2, align 1
  %4 = load i8, ptr %2, align 1
  %5 = call noundef zeroext i8 @_ZN4llvm13to_underlyingIN5clang19ExprDependenceScope14ExprDependenceEEENSt15underlying_typeIT_E4typeES5_(i8 noundef zeroext %4)
  store i8 %5, ptr %3, align 1
  %6 = load i8, ptr %3, align 1
  ret i8 %6
}

; Function Attrs: mustprogress nounwind uwtable
define linkonce_odr hidden noundef ptr @_ZN4llvm8CastInfoIN5clang4ExprEPNS1_4StmtEvE6doCastERKS4_(ptr noundef nonnull align 8 dereferenceable(8) %0) #0 comdat align 2 {
  %2 = alloca ptr, align 8
  store ptr %0, ptr %2, align 8
  %3 = load ptr, ptr %2, align 8
  %4 = load ptr, ptr %3, align 8
  %5 = call noundef ptr @_ZN4llvm16cast_convert_valIN5clang4ExprEPNS1_4StmtES4_E4doitEPKS3_(ptr noundef %4)
  ret ptr %5
}

; Function Attrs: mustprogress nounwind uwtable
define linkonce_odr hidden noundef ptr @_ZNK5clang10ChooseExpr6getRHSEv(ptr noundef nonnull align 8 dereferenceable(49) %0) #0 comdat align 2 {
  %2 = alloca ptr, align 8
  store ptr %0, ptr %2, align 8
  %3 = load ptr, ptr %2, align 8
  %4 = getelementptr inbounds nuw %"class.clang::ChooseExpr", ptr %3, i32 0, i32 1
  %5 = getelementptr inbounds [3 x ptr], ptr %4, i64 0, i64 2
  %6 = load ptr, ptr %5, align 8
  %7 = call noundef ptr @_ZN4llvm4castIN5clang4ExprENS1_4StmtEEEDcPT0_(ptr noundef %6)
  ret ptr %7
}

; Function Attrs: mustprogress nounwind uwtable
define linkonce_odr hidden noundef ptr @_ZNK5clang10ChooseExpr6getLHSEv(ptr noundef nonnull align 8 dereferenceable(49) %0) #0 comdat align 2 {
  %2 = alloca ptr, align 8
  store ptr %0, ptr %2, align 8
  %3 = load ptr, ptr %2, align 8
  %4 = getelementptr inbounds nuw %"class.clang::ChooseExpr", ptr %3, i32 0, i32 1
  %5 = getelementptr inbounds [3 x ptr], ptr %4, i64 0, i64 1
  %6 = load ptr, ptr %5, align 8
  %7 = call noundef ptr @_ZN4llvm4castIN5clang4ExprENS1_4StmtEEEDcPT0_(ptr noundef %6)
  ret ptr %7
}

; Function Attrs: mustprogress nounwind uwtable
define linkonce_odr hidden noundef zeroext i1 @_ZNK5clang10ChooseExpr15isConditionTrueEv(ptr noundef nonnull align 8 dereferenceable(49) %0) #0 comdat align 2 {
  %2 = alloca ptr, align 8
  store ptr %0, ptr %2, align 8
  %3 = load ptr, ptr %2, align 8
  %4 = getelementptr inbounds nuw %"class.clang::ChooseExpr", ptr %3, i32 0, i32 4
  %5 = load i8, ptr %4, align 8
  %6 = trunc i8 %5 to i1
  ret i1 %6
}

; Function Attrs: mustprogress nounwind uwtable
define linkonce_odr hidden noundef zeroext i8 @_ZN4llvm17BitmaskEnumDetailanIN5clang19ExprDependenceScope14ExprDependenceEvEET_S5_S5_(i8 noundef zeroext %0, i8 noundef zeroext %1) #0 comdat {
  %3 = alloca i8, align 1
  %4 = alloca i8, align 1
  store i8 %0, ptr %3, align 1
  store i8 %1, ptr %4, align 1
  %5 = load i8, ptr %3, align 1
  %6 = call noundef zeroext i8 @_ZN4llvm17BitmaskEnumDetail10UnderlyingIN5clang19ExprDependenceScope14ExprDependenceEEENSt15underlying_typeIT_E4typeES6_(i8 noundef zeroext %5)
  %7 = zext i8 %6 to i32
  %8 = load i8, ptr %4, align 1
  %9 = call noundef zeroext i8 @_ZN4llvm17BitmaskEnumDetail10UnderlyingIN5clang19ExprDependenceScope14ExprDependenceEEENSt15underlying_typeIT_E4typeES6_(i8 noundef zeroext %8)
  %10 = zext i8 %9 to i32
  %11 = and i32 %7, %10
  %12 = trunc i32 %11 to i8
  ret i8 %12
}

; Function Attrs: mustprogress nounwind uwtable
define linkonce_odr hidden noundef zeroext i8 @_ZNK5clang4Expr13getDependenceEv(ptr noundef nonnull align 8 dereferenceable(16) %0) #0 comdat align 2 {
  %2 = alloca ptr, align 8
  store ptr %0, ptr %2, align 8
  %3 = load ptr, ptr %2, align 8
  %4 = getelementptr inbounds nuw %"class.clang::Stmt", ptr %3, i32 0, i32 0
  %5 = getelementptr inbounds nuw %"class.clang::Stmt::ExprBitfields", ptr %4, i32 0, i32 1
  %6 = load i16, ptr %5, align 1
  %7 = lshr i16 %6, 5
  %8 = and i16 %7, 31
  %9 = zext i16 %8 to i32
  %10 = trunc i32 %9 to i8
  ret i8 %10
}

; Function Attrs: mustprogress nounwind uwtable
define linkonce_odr hidden noundef ptr @_ZN4llvm4castIN5clang4ExprENS1_4StmtEEEDcPT0_(ptr noundef %0) #0 comdat {
  %2 = alloca ptr, align 8
  store ptr %0, ptr %2, align 8
  %3 = call noundef ptr @_ZN4llvm8CastInfoIN5clang4ExprEPNS1_4StmtEvE6doCastERKS4_(ptr noundef nonnull align 8 dereferenceable(8) %2)
  ret ptr %3
}

; Function Attrs: mustprogress nounwind uwtable
define linkonce_odr hidden noundef ptr @_ZNK5clang10ChooseExpr16getChosenSubExprEv(ptr noundef nonnull align 8 dereferenceable(49) %0) #0 comdat align 2 {
  %2 = alloca ptr, align 8
  store ptr %0, ptr %2, align 8
  %3 = load ptr, ptr %2, align 8
  %4 = call noundef zeroext i1 @_ZNK5clang10ChooseExpr15isConditionTrueEv(ptr noundef nonnull align 8 dereferenceable(49) %3)
  br i1 %4, label %5, label %7

5:                                                ; preds = %1
  %6 = call noundef ptr @_ZNK5clang10ChooseExpr6getLHSEv(ptr noundef nonnull align 8 dereferenceable(49) %3)
  br label %9

7:                                                ; preds = %1
  %8 = call noundef ptr @_ZNK5clang10ChooseExpr6getRHSEv(ptr noundef nonnull align 8 dereferenceable(49) %3)
  br label %9

9:                                                ; preds = %7, %5
  %10 = phi ptr [ %6, %5 ], [ %8, %7 ]
  ret ptr %10
}

; Function Attrs: mustprogress nounwind uwtable
define linkonce_odr hidden noundef zeroext i1 @_ZNK5clang4Expr16isValueDependentEv(ptr noundef nonnull align 8 dereferenceable(16) %0) #0 comdat align 2 {
  %2 = alloca ptr, align 8
  store ptr %0, ptr %2, align 8
  %3 = load ptr, ptr %2, align 8
  %4 = call noundef zeroext i8 @_ZNK5clang4Expr13getDependenceEv(ptr noundef nonnull align 8 dereferenceable(16) %3)
  %5 = call noundef zeroext i8 @_ZN4llvm17BitmaskEnumDetailanIN5clang19ExprDependenceScope14ExprDependenceEvEET_S5_S5_(i8 noundef zeroext %4, i8 noundef zeroext 8)
  %6 = icmp ne i8 %5, 0
  ret i1 %6
}

; Function Attrs: mustprogress nounwind uwtable
define linkonce_odr hidden noundef ptr @_ZNK5clang10ChooseExpr7getCondEv(ptr noundef nonnull align 8 dereferenceable(49) %0) #0 comdat align 2 {
  %2 = alloca ptr, align 8
  store ptr %0, ptr %2, align 8
  %3 = load ptr, ptr %2, align 8
  %4 = getelementptr inbounds nuw %"class.clang::ChooseExpr", ptr %3, i32 0, i32 1
  %5 = getelementptr inbounds [3 x ptr], ptr %4, i64 0, i64 0
  %6 = load ptr, ptr %5, align 8
  %7 = call noundef ptr @_ZN4llvm4castIN5clang4ExprENS1_4StmtEEEDcPT0_(ptr noundef %6)
  ret ptr %7
}

; Function Attrs: mustprogress nounwind uwtable
define internal void @_ZN5clang24EvaluatedExprVisitorBaseIN4llvm14make_const_ptrEN12_GLOBAL__N_115SequenceCheckerEE15VisitChooseExprEPKNS_10ChooseExprE(ptr noundef nonnull align 8 dereferenceable(8) %0, ptr noundef %1) #0 align 2 {
  %3 = alloca ptr, align 8
  %4 = alloca ptr, align 8
  store ptr %0, ptr %3, align 8
  store ptr %1, ptr %4, align 8
  %5 = load ptr, ptr %3, align 8
  %6 = load ptr, ptr %4, align 8
  %7 = call noundef ptr @_ZNK5clang10ChooseExpr7getCondEv(ptr noundef nonnull align 8 dereferenceable(49) %6)
  %8 = call noundef zeroext i1 @_ZNK5clang4Expr16isValueDependentEv(ptr noundef nonnull align 8 dereferenceable(16) %7)
  br i1 %8, label %9, label %10

9:                                                ; preds = %2
  br label %13

10:                                               ; preds = %2
  %11 = load ptr, ptr %4, align 8
  %12 = call noundef ptr @_ZNK5clang10ChooseExpr16getChosenSubExprEv(ptr noundef nonnull align 8 dereferenceable(49) %11)
  call void @_ZN5clang15StmtVisitorBaseIN4llvm14make_const_ptrEN12_GLOBAL__N_115SequenceCheckerEvJEE5VisitEPKNS_4StmtE(ptr noundef nonnull align 1 dereferenceable(1) %5, ptr noundef %12)
  br label %13

13:                                               ; preds = %10, %9
  ret void
}